target datalayout = "e-m:e-p270:32:32-p271:32:32-p272:64:64-i64:64-i128:128-f80:128-n8:16:32:64-S128"
target triple = "x86_64-pc-linux-gnu"

%struct._packet_info = type { ptr, ptr, i32, i32, %struct.nstime_t, %struct.nstime_t, %struct.nstime_t, i8, ptr, ptr, ptr, ptr, %struct._address, %struct._address, %struct._address, %struct._address, %struct._address, %struct._address, i32, ptr, i8, [3 x i8], %struct.anon, i32, i32, i32, i32, ptr, i8, ptr, ptr, i16, i16, i32, i32, i16, i32, i32, ptr, ptr, ptr, i8, i8, i16, i16, i16, i32, i16, i16, ptr, ptr, ptr, ptr, ptr, i32, i32 }
%struct.nstime_t = type { i64, i32 }
%struct._address = type { i32, i32, ptr, ptr }
%struct.anon = type { i8, [3 x i8] }

@hf_nbp_op = internal global i32 0, align 4
@hf_nbp_info = internal global i32 0, align 4
@hf_nbp_count = internal global i32 0, align 4
@hf_nbp_node_net = internal global i32 0, align 4
@hf_nbp_node_node = internal global i32 0, align 4
@hf_nbp_node_port = internal global i32 0, align 4
@hf_nbp_node_enum = internal global i32 0, align 4
@hf_nbp_node_object = internal global i32 0, align 4
@hf_nbp_node_type = internal global i32 0, align 4
@hf_nbp_node_zone = internal global i32 0, align 4
@hf_nbp_tid = internal global i32 0, align 4
@ett_nbp = internal global i32 0, align 4
@ett_nbp_info = internal global i32 0, align 4
@ett_nbp_node = internal global i32 0, align 4
@.str.214 = private unnamed_addr constant [4 x i8] c"NBP\00", align 1
@proto_nbp = internal global i32 0, align 4
@.str.374 = private unnamed_addr constant [18 x i8] c"Op: %s  Count: %u\00", align 1
@.str.375 = private unnamed_addr constant [17 x i8] c"Unknown (0x%01x)\00", align 1
@.str.376 = private unnamed_addr constant [39 x i8] c"Info: 0x%01X  Operation: %s  Count: %u\00", align 1
@.str.377 = private unnamed_addr constant [17 x i8] c"Unknown (0x%01X)\00", align 1
@.str.378 = private unnamed_addr constant [8 x i8] c"Node %u\00", align 1

; Function Attrs: null_pointer_is_valid sspstrong uwtable
define internal i32 @dissect_pascal_string(ptr noundef %0, i32 noundef %1, ptr noundef %2, i32 noundef %3) #1 {
  %5 = alloca ptr, align 8
  %6 = alloca i32, align 4
  %7 = alloca ptr, align 8
  %8 = alloca i32, align 4
  %9 = alloca i32, align 4
  store ptr %0, ptr %5, align 8
  store i32 %1, ptr %6, align 4
  store ptr %2, ptr %7, align 8
  store i32 %3, ptr %8, align 4
  call void @llvm.lifetime.start.p0(i64 4, ptr %9) #11
  %10 = load ptr, ptr %5, align 8
  %11 = load i32, ptr %6, align 4
  %12 = call zeroext i8 @tvb_get_uint8(ptr noundef %10, i32 noundef %11)
  %13 = zext i8 %12 to i32
  store i32 %13, ptr %9, align 4
  %14 = load ptr, ptr %7, align 8
  %15 = load i32, ptr %8, align 4
  %16 = load ptr, ptr %5, align 8
  %17 = load i32, ptr %6, align 4
  %18 = call ptr @proto_tree_add_item(ptr noundef %14, i32 noundef %15, ptr noundef %16, i32 noundef %17, i32 noundef 1, i32 noundef 48)
  %19 = load i32, ptr %9, align 4
  %20 = add i32 %19, 1
  %21 = load i32, ptr %6, align 4
  %22 = add i32 %21, %20
  store i32 %22, ptr %6, align 4
  %23 = load i32, ptr %6, align 4
  call void @llvm.lifetime.end.p0(i64 4, ptr %9) #11
  ret i32 %23
}

; Function Attrs: null_pointer_is_valid sspstrong uwtable
define internal i32 @dissect_nbp(ptr noundef %0, ptr noundef %1, ptr noundef %2, ptr noundef %3) #1 {
  %5 = alloca ptr, align 8
  %6 = alloca ptr, align 8
  %7 = alloca ptr, align 8
  %8 = alloca ptr, align 8
  %9 = alloca ptr, align 8
  %10 = alloca ptr, align 8
  %11 = alloca ptr, align 8
  %12 = alloca ptr, align 8
  %13 = alloca i32, align 4
  %14 = alloca i8, align 1
  %15 = alloca i32, align 4
  %16 = alloca i32, align 4
  %17 = alloca i32, align 4
  %18 = alloca ptr, align 8
  %19 = alloca ptr, align 8
  %20 = alloca i32, align 4
  store ptr %0, ptr %5, align 8
  store ptr %1, ptr %6, align 8
  store ptr %2, ptr %7, align 8
  store ptr %3, ptr %8, align 8
  call void @llvm.lifetime.start.p0(i64 8, ptr %9) #11
  call void @llvm.lifetime.start.p0(i64 8, ptr %10) #11
  call void @llvm.lifetime.start.p0(i64 8, ptr %11) #11
  call void @llvm.lifetime.start.p0(i64 8, ptr %12) #11
  call void @llvm.lifetime.start.p0(i64 4, ptr %13) #11
  store i32 0, ptr %13, align 4
  call void @llvm.lifetime.start.p0(i64 1, ptr %14) #11
  call void @llvm.lifetime.start.p0(i64 4, ptr %15) #11
  call void @llvm.lifetime.start.p0(i64 4, ptr %16) #11
  call void @llvm.lifetime.start.p0(i64 4, ptr %17) #11
  %21 = load ptr, ptr %6, align 8
  %22 = getelementptr inbounds nuw %struct._packet_info, ptr %21, i32 0, i32 1
  %23 = load ptr, ptr %22, align 8
  call void @col_set_str(ptr noundef %23, i32 noundef 35, ptr noundef @.str.214)
  %24 = load ptr, ptr %6, align 8
  %25 = getelementptr inbounds nuw %struct._packet_info, ptr %24, i32 0, i32 1
  %26 = load ptr, ptr %25, align 8
  call void @col_clear(ptr noundef %26, i32 noundef 25)
  %27 = load ptr, ptr %5, align 8
  %28 = load i32, ptr %13, align 4
  %29 = call zeroext i8 @tvb_get_uint8(ptr noundef %27, i32 noundef %28)
  store i8 %29, ptr %14, align 1
  %30 = load i8, ptr %14, align 1
  %31 = zext i8 %30 to i32
  %32 = ashr i32 %31, 4
  store i32 %32, ptr %15, align 4
  %33 = load i8, ptr %14, align 1
  %34 = zext i8 %33 to i32
  %35 = and i32 %34, 15
  store i32 %35, ptr %16, align 4
  %36 = load ptr, ptr %6, align 8
  %37 = getelementptr inbounds nuw %struct._packet_info, ptr %36, i32 0, i32 1
  %38 = load ptr, ptr %37, align 8
  %39 = load i32, ptr %15, align 4
  %40 = call ptr @val_to_str(i32 noundef %39, ptr noundef @nbp_op_vals, ptr noundef @.str.375)
  %41 = load i32, ptr %16, align 4
  call void (ptr, i32, ptr, ...) @col_add_fstr(ptr noundef %38, i32 noundef 25, ptr noundef @.str.374, ptr noundef %40, i32 noundef %41)
  %42 = load ptr, ptr %7, align 8
  %43 = icmp ne ptr %42, null
  br i1 %43, label %44, label %154

44:                                               ; preds = %4
  %45 = load ptr, ptr %7, align 8
  %46 = load i32, ptr @proto_nbp, align 4
  %47 = load ptr, ptr %5, align 8
  %48 = load i32, ptr %13, align 4
  %49 = call ptr @proto_tree_add_item(ptr noundef %45, i32 noundef %46, ptr noundef %47, i32 noundef %48, i32 noundef -1, i32 noundef 0)
  store ptr %49, ptr %11, align 8
  %50 = load ptr, ptr %11, align 8
  %51 = load i32, ptr @ett_nbp, align 4
  %52 = call ptr @proto_item_add_subtree(ptr noundef %50, i32 noundef %51)
  store ptr %52, ptr %9, align 8
  %53 = load ptr, ptr %9, align 8
  %54 = load i32, ptr @hf_nbp_info, align 4
  %55 = load ptr, ptr %5, align 8
  %56 = load i32, ptr %13, align 4
  %57 = load i8, ptr %14, align 1
  %58 = zext i8 %57 to i32
  %59 = load i8, ptr %14, align 1
  %60 = zext i8 %59 to i32
  %61 = load i32, ptr %15, align 4
  %62 = call ptr @val_to_str(i32 noundef %61, ptr noundef @nbp_op_vals, ptr noundef @.str.377)
  %63 = load i32, ptr %16, align 4
  %64 = call ptr (ptr, i32, ptr, i32, i32, i32, ptr, ...) @proto_tree_add_uint_format(ptr noundef %53, i32 noundef %54, ptr noundef %55, i32 noundef %56, i32 noundef 1, i32 noundef %58, ptr noundef @.str.376, i32 noundef %60, ptr noundef %62, i32 noundef %63)
  store ptr %64, ptr %12, align 8
  %65 = load ptr, ptr %12, align 8
  %66 = load i32, ptr @ett_nbp_info, align 4
  %67 = call ptr @proto_item_add_subtree(ptr noundef %65, i32 noundef %66)
  store ptr %67, ptr %10, align 8
  %68 = load ptr, ptr %10, align 8
  %69 = load i32, ptr @hf_nbp_op, align 4
  %70 = load ptr, ptr %5, align 8
  %71 = load i32, ptr %13, align 4
  %72 = load i8, ptr %14, align 1
  %73 = zext i8 %72 to i32
  %74 = call ptr @proto_tree_add_uint(ptr noundef %68, i32 noundef %69, ptr noundef %70, i32 noundef %71, i32 noundef 1, i32 noundef %73)
  %75 = load ptr, ptr %10, align 8
  %76 = load i32, ptr @hf_nbp_count, align 4
  %77 = load ptr, ptr %5, align 8
  %78 = load i32, ptr %13, align 4
  %79 = load i8, ptr %14, align 1
  %80 = zext i8 %79 to i32
  %81 = call ptr @proto_tree_add_uint(ptr noundef %75, i32 noundef %76, ptr noundef %77, i32 noundef %78, i32 noundef 1, i32 noundef %80)
  %82 = load ptr, ptr %9, align 8
  %83 = load i32, ptr @hf_nbp_tid, align 4
  %84 = load ptr, ptr %5, align 8
  %85 = load i32, ptr %13, align 4
  %86 = add i32 %85, 1
  %87 = call ptr @proto_tree_add_item(ptr noundef %82, i32 noundef %83, ptr noundef %84, i32 noundef %86, i32 noundef 1, i32 noundef 0)
  %88 = load i32, ptr %13, align 4
  %89 = add i32 %88, 2
  store i32 %89, ptr %13, align 4
  store i32 0, ptr %17, align 4
  br label %90

90:                                               ; preds = %150, %44
  %91 = load i32, ptr %17, align 4
  %92 = load i32, ptr %16, align 4
  %93 = icmp ult i32 %91, %92
  br i1 %93, label %94, label %153

94:                                               ; preds = %90
  call void @llvm.lifetime.start.p0(i64 8, ptr %18) #11
  call void @llvm.lifetime.start.p0(i64 8, ptr %19) #11
  call void @llvm.lifetime.start.p0(i64 4, ptr %20) #11
  %95 = load i32, ptr %13, align 4
  store i32 %95, ptr %20, align 4
  %96 = load ptr, ptr %9, align 8
  %97 = load ptr, ptr %5, align 8
  %98 = load i32, ptr %13, align 4
  %99 = load i32, ptr @ett_nbp_node, align 4
  %100 = load i32, ptr %17, align 4
  %101 = add i32 %100, 1
  %102 = call ptr (ptr, ptr, i32, i32, i32, ptr, ptr, ...) @proto_tree_add_subtree_format(ptr noundef %96, ptr noundef %97, i32 noundef %98, i32 noundef -1, i32 noundef %99, ptr noundef %18, ptr noundef @.str.378, i32 noundef %101)
  store ptr %102, ptr %19, align 8
  %103 = load ptr, ptr %19, align 8
  %104 = load i32, ptr @hf_nbp_node_net, align 4
  %105 = load ptr, ptr %5, align 8
  %106 = load i32, ptr %13, align 4
  %107 = call ptr @proto_tree_add_item(ptr noundef %103, i32 noundef %104, ptr noundef %105, i32 noundef %106, i32 noundef 2, i32 noundef 0)
  %108 = load i32, ptr %13, align 4
  %109 = add i32 %108, 2
  store i32 %109, ptr %13, align 4
  %110 = load ptr, ptr %19, align 8
  %111 = load i32, ptr @hf_nbp_node_node, align 4
  %112 = load ptr, ptr %5, align 8
  %113 = load i32, ptr %13, align 4
  %114 = call ptr @proto_tree_add_item(ptr noundef %110, i32 noundef %111, ptr noundef %112, i32 noundef %113, i32 noundef 1, i32 noundef 0)
  %115 = load i32, ptr %13, align 4
  %116 = add i32 %115, 1
  store i32 %116, ptr %13, align 4
  %117 = load ptr, ptr %19, align 8
  %118 = load i32, ptr @hf_nbp_node_port, align 4
  %119 = load ptr, ptr %5, align 8
  %120 = load i32, ptr %13, align 4
  %121 = call ptr @proto_tree_add_item(ptr noundef %117, i32 noundef %118, ptr noundef %119, i32 noundef %120, i32 noundef 1, i32 noundef 0)
  %122 = load i32, ptr %13, align 4
  %123 = add i32 %122, 1
  store i32 %123, ptr %13, align 4
  %124 = load ptr, ptr %19, align 8
  %125 = load i32, ptr @hf_nbp_node_enum, align 4
  %126 = load ptr, ptr %5, align 8
  %127 = load i32, ptr %13, align 4
  %128 = call ptr @proto_tree_add_item(ptr noundef %124, i32 noundef %125, ptr noundef %126, i32 noundef %127, i32 noundef 1, i32 noundef 0)
  %129 = load i32, ptr %13, align 4
  %130 = add i32 %129, 1
  store i32 %130, ptr %13, align 4
  %131 = load ptr, ptr %5, align 8
  %132 = load i32, ptr %13, align 4
  %133 = load ptr, ptr %19, align 8
  %134 = load i32, ptr @hf_nbp_node_object, align 4
  %135 = call i32 @dissect_pascal_string(ptr noundef %131, i32 noundef %132, ptr noundef %133, i32 noundef %134)
  store i32 %135, ptr %13, align 4
  %136 = load ptr, ptr %5, align 8
  %137 = load i32, ptr %13, align 4
  %138 = load ptr, ptr %19, align 8
  %139 = load i32, ptr @hf_nbp_node_type, align 4
  %140 = call i32 @dissect_pascal_string(ptr noundef %136, i32 noundef %137, ptr noundef %138, i32 noundef %139)
  store i32 %140, ptr %13, align 4
  %141 = load ptr, ptr %5, align 8
  %142 = load i32, ptr %13, align 4
  %143 = load ptr, ptr %19, align 8
  %144 = load i32, ptr @hf_nbp_node_zone, align 4
  %145 = call i32 @dissect_pascal_string(ptr noundef %141, i32 noundef %142, ptr noundef %143, i32 noundef %144)
  store i32 %145, ptr %13, align 4
  %146 = load ptr, ptr %18, align 8
  %147 = load i32, ptr %13, align 4
  %148 = load i32, ptr %20, align 4
  %149 = sub i32 %147, %148
  call void @proto_item_set_len(ptr noundef %146, i32 noundef %149)
  call void @llvm.lifetime.end.p0(i64 4, ptr %20) #11
  call void @llvm.lifetime.end.p0(i64 8, ptr %19) #11
  call void @llvm.lifetime.end.p0(i64 8, ptr %18) #11
  br label %150

150:                                              ; preds = %94
  %151 = load i32, ptr %17, align 4
  %152 = add i32 %151, 1
  store i32 %152, ptr %17, align 4
  br label %90, !llvm.loop !6

153:                                              ; preds = %90
  br label %154

154:                                              ; preds = %153, %4
  %155 = load ptr, ptr %5, align 8
  %156 = call i32 @tvb_captured_length(ptr noundef %155)
  call void @llvm.lifetime.end.p0(i64 4, ptr %17) #11
  call void @llvm.lifetime.end.p0(i64 4, ptr %16) #11
  call void @llvm.lifetime.end.p0(i64 4, ptr %15) #11
  call void @llvm.lifetime.end.p0(i64 1, ptr %14) #11
  call void @llvm.lifetime.end.p0(i64 4, ptr %13) #11
  call void @llvm.lifetime.end.p0(i64 8, ptr %12) #11
  call void @llvm.lifetime.end.p0(i64 8, ptr %11) #11
  call void @llvm.lifetime.end.p0(i64 8, ptr %10) #11
  call void @llvm.lifetime.end.p0(i64 8, ptr %9) #11
  ret i32 %156
}