; Function Attrs: null_pointer_is_valid sspstrong uwtable
define internal i32 @dissect_nbp(ptr noundef %0, ptr noundef readonly captures(none) %1, ptr noundef %2, ptr readnone captures(none) %3) #1 {
  %5 = alloca ptr, align 8
  %6 = getelementptr inbounds nuw i8, ptr %1, i64 8
  %7 = load ptr, ptr %6, align 8
  tail call void @col_set_str(ptr noundef %7, i32 noundef 35, ptr noundef nonnull @.str.214)
  %8 = load ptr, ptr %6, align 8
  tail call void @col_clear(ptr noundef %8, i32 noundef 25)
  %9 = tail call zeroext i8 @tvb_get_uint8(ptr noundef %0, i32 noundef 0)
  %10 = zext i8 %9 to i32
  %11 = lshr i32 %10, 4
  %12 = and i32 %10, 15
  %13 = load ptr, ptr %6, align 8
  %14 = tail call ptr @val_to_str(i32 noundef %11, ptr noundef nonnull @nbp_op_vals, ptr noundef nonnull @.str.375)
  tail call void (ptr, i32, ptr, ...) @col_add_fstr(ptr noundef %13, i32 noundef 25, ptr noundef nonnull @.str.374, ptr noundef %14, i32 noundef %12)
  %.not = icmp eq ptr %2, null
  br i1 %.not, label %.loopexit, label %15

15:                                               ; preds = %4
  %16 = load i32, ptr @proto_nbp, align 4
  %17 = tail call ptr @proto_tree_add_item(ptr noundef nonnull %2, i32 noundef %16, ptr noundef %0, i32 noundef 0, i32 noundef -1, i32 noundef 0)
  %18 = load i32, ptr @ett_nbp, align 4
  %19 = tail call ptr @proto_item_add_subtree(ptr noundef %17, i32 noundef %18)
  %20 = load i32, ptr @hf_nbp_info, align 4
  %21 = tail call ptr @val_to_str(i32 noundef %11, ptr noundef nonnull @nbp_op_vals, ptr noundef nonnull @.str.377)
  %22 = tail call ptr (ptr, i32, ptr, i32, i32, i32, ptr, ...) @proto_tree_add_uint_format(ptr noundef %19, i32 noundef %20, ptr noundef %0, i32 noundef 0, i32 noundef 1, i32 noundef %10, ptr noundef nonnull @.str.376, i32 noundef %10, ptr noundef %21, i32 noundef %12)
  %23 = load i32, ptr @ett_nbp_info, align 4
  %24 = tail call ptr @proto_item_add_subtree(ptr noundef %22, i32 noundef %23)
  %25 = load i32, ptr @hf_nbp_op, align 4
  %26 = tail call ptr @proto_tree_add_uint(ptr noundef %24, i32 noundef %25, ptr noundef %0, i32 noundef 0, i32 noundef 1, i32 noundef %10)
  %27 = load i32, ptr @hf_nbp_count, align 4
  %28 = tail call ptr @proto_tree_add_uint(ptr noundef %24, i32 noundef %27, ptr noundef %0, i32 noundef 0, i32 noundef 1, i32 noundef %10)
  %29 = load i32, ptr @hf_nbp_tid, align 4
  %30 = tail call ptr @proto_tree_add_item(ptr noundef %19, i32 noundef %29, ptr noundef %0, i32 noundef 1, i32 noundef 1, i32 noundef 0)
  %.not73 = icmp eq i32 %12, 0
  br i1 %.not73, label %.loopexit, label %.lr.ph

.lr.ph:                                           ; preds = %15, %.lr.ph
  %.072 = phi i32 [ %63, %.lr.ph ], [ 2, %15 ]
  %.06971 = phi i32 [ %32, %.lr.ph ], [ 0, %15 ]
  call void @llvm.lifetime.start.p0(i64 8, ptr nonnull %5) #10
  %31 = load i32, ptr @ett_nbp_node, align 4
  %32 = add nuw nsw i32 %.06971, 1
  %33 = call ptr (ptr, ptr, i32, i32, i32, ptr, ptr, ...) @proto_tree_add_subtree_format(ptr noundef %19, ptr noundef %0, i32 noundef %.072, i32 noundef -1, i32 noundef %31, ptr noundef nonnull %5, ptr noundef nonnull @.str.378, i32 noundef %32)
  %34 = load i32, ptr @hf_nbp_node_net, align 4
  %35 = call ptr @proto_tree_add_item(ptr noundef %33, i32 noundef %34, ptr noundef %0, i32 noundef %.072, i32 noundef 2, i32 noundef 0)
  %36 = add i32 %.072, 2
  %37 = load i32, ptr @hf_nbp_node_node, align 4
  %38 = call ptr @proto_tree_add_item(ptr noundef %33, i32 noundef %37, ptr noundef %0, i32 noundef %36, i32 noundef 1, i32 noundef 0)
  %39 = add i32 %.072, 3
  %40 = load i32, ptr @hf_nbp_node_port, align 4
  %41 = call ptr @proto_tree_add_item(ptr noundef %33, i32 noundef %40, ptr noundef %0, i32 noundef %39, i32 noundef 1, i32 noundef 0)
  %42 = add i32 %.072, 4
  %43 = load i32, ptr @hf_nbp_node_enum, align 4
  %44 = call ptr @proto_tree_add_item(ptr noundef %33, i32 noundef %43, ptr noundef %0, i32 noundef %42, i32 noundef 1, i32 noundef 0)
  %45 = add i32 %.072, 5
  %46 = load i32, ptr @hf_nbp_node_object, align 4
  %47 = call zeroext i8 @tvb_get_uint8(ptr noundef %0, i32 noundef %45)
  %48 = zext i8 %47 to i32
  %49 = call ptr @proto_tree_add_item(ptr noundef %33, i32 noundef %46, ptr noundef %0, i32 noundef %45, i32 noundef 1, i32 noundef 48)
  %50 = add i32 %.072, 6
  %51 = add i32 %50, %48
  %52 = load i32, ptr @hf_nbp_node_type, align 4
  %53 = call zeroext i8 @tvb_get_uint8(ptr noundef %0, i32 noundef %51)
  %54 = zext i8 %53 to i32
  %55 = call ptr @proto_tree_add_item(ptr noundef %33, i32 noundef %52, ptr noundef %0, i32 noundef %51, i32 noundef 1, i32 noundef 48)
  %56 = add i32 %51, 1
  %57 = add i32 %56, %54
  %58 = load i32, ptr @hf_nbp_node_zone, align 4
  %59 = call zeroext i8 @tvb_get_uint8(ptr noundef %0, i32 noundef %57)
  %60 = zext i8 %59 to i32
  %61 = call ptr @proto_tree_add_item(ptr noundef %33, i32 noundef %58, ptr noundef %0, i32 noundef %57, i32 noundef 1, i32 noundef 48)
  %62 = add i32 %57, 1
  %63 = add i32 %62, %60
  %64 = load ptr, ptr %5, align 8
  %65 = sub i32 %63, %.072
  call void @proto_item_set_len(ptr noundef %64, i32 noundef %65)
  call void @llvm.lifetime.end.p0(i64 8, ptr nonnull %5) #10
  %exitcond.not = icmp eq i32 %32, %12
  br i1 %exitcond.not, label %.loopexit, label %.lr.ph, !llvm.loop !6

.loopexit:                                        ; preds = %.lr.ph, %15, %4
  %66 = call i32 @tvb_captured_length(ptr noundef %0)
  ret i32 %66
}